Certificate:
    Data:
        Version: 3 (0x2)
        Serial Number: 5 (0x5)
    Signature Algorithm: sha256WithRSAEncryption
        Issuer: CN=Ben Wolsieffer's CA
        Validity
            Not Before: Mar 27 20:13:54 2017 GMT
            Not After : Mar 25 20:13:54 2027 GMT
        Subject: CN=Dell-Optiplex-780
        Subject Public Key Info:
            Public Key Algorithm: rsaEncryption
                Public-Key: (2048 bit)
                Modulus:
                    00:a0:26:01:8c:38:4f:48:45:1e:82:a0:ed:84:31:
                    38:0b:e2:72:74:78:82:bb:69:f0:5e:ff:69:af:28:
                    ff:ff:bb:30:ce:7c:7b:6a:20:99:39:09:5f:e1:bf:
                    cc:0c:4b:e3:76:71:0c:66:89:81:cd:8c:2f:4b:ea:
                    a5:1f:f5:4f:c4:b1:92:aa:7c:a9:46:db:27:8f:69:
                    eb:ec:44:90:0d:c7:c8:43:84:76:e0:97:bd:fc:d0:
                    7a:76:58:75:69:cc:97:2b:cd:ba:e2:29:80:6b:ec:
                    d2:63:53:b4:70:8a:6e:55:00:93:13:3c:97:1b:e7:
                    34:1c:7a:db:08:31:a9:49:6f:d3:9f:a8:93:5d:d0:
                    9a:c1:a9:5a:a7:b8:23:23:bc:1f:80:3c:73:54:01:
                    32:9f:ac:67:73:2c:f0:9f:de:a4:55:d1:02:b0:62:
                    cd:b8:03:81:9a:79:1b:e6:49:ef:d4:cf:c6:61:58:
                    5c:97:31:fb:09:23:ce:73:f9:df:a9:5a:7f:e0:e4:
                    04:58:3f:49:46:2e:45:7d:18:e8:ac:b1:49:29:99:
                    0e:96:da:3d:3d:2a:31:ce:1e:09:17:dd:cb:ab:3e:
                    17:b0:29:4b:b2:30:4c:88:50:36:a3:09:aa:42:31:
                    ec:33:89:c3:83:71:78:08:34:40:bd:5a:02:3b:ab:
                    f4:7d
                Exponent: 65537 (0x10001)
        X509v3 extensions:
            X509v3 Basic Constraints: 
                CA:FALSE
            X509v3 Subject Key Identifier: 
                32:60:15:0C:40:ED:FE:89:13:25:F4:7B:AD:D4:3E:E1:D1:FF:17:0A
            X509v3 Authority Key Identifier: 
                keyid:EC:2A:B0:F3:D1:8E:EC:E7:11:14:D6:7E:28:CA:16:A6:E8:B9:4C:A7
                DirName:/CN=Ben Wolsieffer's CA
                serial:A1:13:01:7A:32:24:CE:E3

            X509v3 Extended Key Usage: 
                TLS Web Client Authentication
            X509v3 Key Usage: 
                Digital Signature
    Signature Algorithm: sha256WithRSAEncryption
         78:32:fa:86:9b:98:4a:cf:c3:95:9f:a5:73:1d:a2:b2:60:2a:
         37:00:81:5a:f9:39:d0:b5:dc:8f:6e:7a:42:a0:ae:cb:d0:41:
         f5:31:2d:c3:49:77:0b:a2:9c:02:ea:96:ae:0c:9e:cc:a4:8e:
         3b:b3:08:ae:df:ec:60:fb:2e:21:47:f9:cb:1a:ff:d3:3d:a0:
         9a:1b:4d:41:cc:81:61:aa:6d:2b:f7:ab:47:c7:ac:d6:74:62:
         58:b8:68:7a:24:7a:1c:6b:0a:58:e1:26:0b:0c:e3:29:13:a7:
         af:63:ed:4d:95:9d:d5:4b:58:6f:10:5a:30:58:7b:06:d2:88:
         ac:96:02:c9:05:e0:76:c4:de:f3:e9:9e:a2:69:2b:91:c6:ee:
         78:1d:6f:dc:bd:21:2a:0a:7b:eb:fb:96:34:e0:f3:89:52:37:
         b2:40:8a:38:85:52:ed:c3:60:c6:a5:fe:56:6c:d1:02:9f:89:
         5e:02:3a:93:25:da:73:e2:7f:25:cb:34:34:59:81:79:22:1b:
         07:b1:8b:4e:14:4e:1d:cd:6f:0f:3c:13:0b:b9:4c:57:bb:ee:
         7a:75:10:ca:92:eb:84:17:91:c9:3d:75:38:ef:74:7d:62:97:
         63:67:cb:e7:36:50:76:78:00:48:75:fb:14:c3:9f:63:16:7b:
         0e:cf:fe:77
-----BEGIN CERTIFICATE-----
MIIDVTCCAj2gAwIBAgIBBTANBgkqhkiG9w0BAQsFADAeMRwwGgYDVQQDDBNCZW4g
V29sc2llZmZlcidzIENBMB4XDTE3MDMyNzIwMTM1NFoXDTI3MDMyNTIwMTM1NFow
HDEaMBgGA1UEAwwRRGVsbC1PcHRpcGxleC03ODAwggEiMA0GCSqGSIb3DQEBAQUA
A4IBDwAwggEKAoIBAQCgJgGMOE9IRR6CoO2EMTgL4nJ0eIK7afBe/2mvKP//uzDO
fHtqIJk5CV/hv8wMS+N2cQxmiYHNjC9L6qUf9U/EsZKqfKlG2yePaevsRJANx8hD
hHbgl7380Hp2WHVpzJcrzbriKYBr7NJjU7Rwim5VAJMTPJcb5zQcetsIMalJb9Of
qJNd0JrBqVqnuCMjvB+APHNUATKfrGdzLPCf3qRV0QKwYs24A4GaeRvmSe/Uz8Zh
WFyXMfsJI85z+d+pWn/g5ARYP0lGLkV9GOissUkpmQ6W2j09KjHOHgkX3curPhew
KUuyMEyIUDajCapCMewzicODcXgINEC9WgI7q/R9AgMBAAGjgZ8wgZwwCQYDVR0T
BAIwADAdBgNVHQ4EFgQUMmAVDEDt/okTJfR7rdQ+4dH/FwowTgYDVR0jBEcwRYAU
7Cqw89GO7OcRFNZ+KMoWpui5TKehIqQgMB4xHDAaBgNVBAMME0JlbiBXb2xzaWVm
ZmVyJ3MgQ0GCCQChEwF6MiTO4zATBgNVHSUEDDAKBggrBgEFBQcDAjALBgNVHQ8E
BAMCB4AwDQYJKoZIhvcNAQELBQADggEBAHgy+oabmErPw5WfpXMdorJgKjcAgVr5
OdC13I9uekKgrsvQQfUxLcNJdwuinALqlq4MnsykjjuzCK7f7GD7LiFH+csa/9M9
oJobTUHMgWGqbSv3q0fHrNZ0Yli4aHokehxrCljhJgsM4ykTp69j7U2VndVLWG8Q
WjBYewbSiKyWAskF4HbE3vPpnqJpK5HG7ngdb9y9ISoKe+v7ljTg84lSN7JAijiF
Uu3DYMal/lZs0QKfiV4COpMl2nPifyXLNDRZgXkiGwexi04UTh3Nbw88Ewu5TFe7
7np1EMqS64QXkck9dTjvdH1il2Nny+c2UHZ4AEh1+xTDn2MWew7P/nc=
-----END CERTIFICATE-----
