Certificate:
    Data:
        Version: 3 (0x2)
        Serial Number: 7 (0x7)
    Signature Algorithm: sha256WithRSAEncryption
        Issuer: CN=Ben Wolsieffer's CA
        Validity
            Not Before: Sep 12 02:11:32 2017 GMT
            Not After : Sep 10 02:11:32 2027 GMT
        Subject: CN=HP-Z420
        Subject Public Key Info:
            Public Key Algorithm: rsaEncryption
                Public-Key: (2048 bit)
                Modulus:
                    00:cf:70:74:fd:ad:46:6f:5f:3a:15:15:a1:62:98:
                    72:0f:9e:75:e0:c1:76:6b:11:7a:51:5b:9f:96:e8:
                    d9:a5:bb:47:01:a9:35:c8:5f:be:85:a3:14:7e:2c:
                    54:4b:8e:98:71:d0:c3:ca:84:4c:b7:90:45:80:06:
                    27:b4:cb:49:9f:3b:a3:9c:ad:13:bd:f0:8a:77:d6:
                    e7:f6:af:69:0e:23:ae:6c:76:86:b7:db:40:dd:4e:
                    39:35:4a:ee:18:1f:7e:9a:d6:76:7b:f2:c4:f7:e4:
                    ca:01:d2:35:9a:45:08:5f:4a:c3:08:c0:c3:81:17:
                    92:63:56:0d:92:3f:40:11:a6:00:32:aa:38:0a:b9:
                    9a:1b:25:d9:e3:f8:19:dd:8f:cc:b7:be:73:69:48:
                    e3:0b:fc:c4:c6:cc:66:0a:d7:3e:b5:f4:02:65:52:
                    be:ac:4e:b1:5b:bd:65:02:c9:4d:84:f5:c3:0c:35:
                    60:b5:ba:d4:b0:1e:36:f6:1a:99:4e:10:79:f2:f6:
                    31:01:16:14:31:99:21:f1:ae:1d:dd:3a:28:ed:81:
                    91:ac:13:de:48:6d:29:79:e0:10:f5:89:4f:b8:82:
                    3d:08:b4:41:45:c3:63:cd:1b:91:e5:dc:cf:97:56:
                    93:e7:45:8a:8e:5f:89:56:d5:c9:cc:8b:5e:48:19:
                    3d:e1
                Exponent: 65537 (0x10001)
        X509v3 extensions:
            X509v3 Basic Constraints: 
                CA:FALSE
            X509v3 Subject Key Identifier: 
                CF:60:F0:B0:23:0B:7D:D7:DA:9D:72:52:B2:57:3A:D1:73:BD:14:60
            X509v3 Authority Key Identifier: 
                keyid:EC:2A:B0:F3:D1:8E:EC:E7:11:14:D6:7E:28:CA:16:A6:E8:B9:4C:A7
                DirName:/CN=Ben Wolsieffer's CA
                serial:A1:13:01:7A:32:24:CE:E3

            X509v3 Extended Key Usage: 
                TLS Web Client Authentication
            X509v3 Key Usage: 
                Digital Signature
    Signature Algorithm: sha256WithRSAEncryption
         10:b8:e5:64:da:fb:73:f9:5e:88:28:3f:17:a4:2c:24:bf:2a:
         e3:33:59:6f:ad:c6:4b:1f:6d:5d:d2:b5:00:10:2e:8e:8a:c7:
         7c:a1:01:01:73:1e:ac:e7:02:d5:e8:4e:b4:f5:ca:77:c2:8e:
         d3:35:5b:2d:fb:41:43:56:d0:ab:b7:63:ac:96:f6:e1:f2:ad:
         8f:bc:46:02:8a:25:fd:7c:b0:7a:f3:0b:8f:cf:1a:55:3d:e7:
         c2:8c:b8:1c:b5:46:7b:6e:4f:08:3f:05:4b:f7:9d:23:b3:f5:
         77:f2:4b:a3:f9:22:e9:bf:27:49:8f:b2:f7:79:9c:e4:23:bf:
         7f:4d:7c:f3:29:13:08:9e:e6:ce:d3:e2:25:3c:0a:e7:11:0b:
         63:27:5c:7e:5b:34:f7:3c:d2:5b:44:24:6a:2a:30:e1:c7:b9:
         dd:5c:04:ee:a6:d5:76:6b:f8:67:bc:ba:60:fb:8c:aa:bd:40:
         ec:05:32:c6:73:87:44:83:99:3e:1e:9c:5d:ab:7d:f3:d1:b5:
         9d:2a:ee:3b:44:bb:cd:4c:74:9a:e3:2e:b8:9c:6a:b9:7a:26:
         ac:6f:c3:94:a7:ea:9c:f8:ee:80:90:2a:26:f8:a4:ac:00:1e:
         d6:bc:76:7f:ad:67:5c:4c:cb:bb:98:af:4c:65:cd:ce:29:2b:
         08:ad:2c:8f
-----BEGIN CERTIFICATE-----
MIIDSzCCAjOgAwIBAgIBBzANBgkqhkiG9w0BAQsFADAeMRwwGgYDVQQDDBNCZW4g
V29sc2llZmZlcidzIENBMB4XDTE3MDkxMjAyMTEzMloXDTI3MDkxMDAyMTEzMlow
EjEQMA4GA1UEAwwHSFAtWjQyMDCCASIwDQYJKoZIhvcNAQEBBQADggEPADCCAQoC
ggEBAM9wdP2tRm9fOhUVoWKYcg+edeDBdmsRelFbn5bo2aW7RwGpNchfvoWjFH4s
VEuOmHHQw8qETLeQRYAGJ7TLSZ87o5ytE73winfW5/avaQ4jrmx2hrfbQN1OOTVK
7hgffprWdnvyxPfkygHSNZpFCF9KwwjAw4EXkmNWDZI/QBGmADKqOAq5mhsl2eP4
Gd2PzLe+c2lI4wv8xMbMZgrXPrX0AmVSvqxOsVu9ZQLJTYT1www1YLW61LAeNvYa
mU4QefL2MQEWFDGZIfGuHd06KO2BkawT3khtKXngEPWJT7iCPQi0QUXDY80bkeXc
z5dWk+dFio5fiVbVycyLXkgZPeECAwEAAaOBnzCBnDAJBgNVHRMEAjAAMB0GA1Ud
DgQWBBTPYPCwIwt919qdclKyVzrRc70UYDBOBgNVHSMERzBFgBTsKrDz0Y7s5xEU
1n4oyham6LlMp6EipCAwHjEcMBoGA1UEAwwTQmVuIFdvbHNpZWZmZXIncyBDQYIJ
AKETAXoyJM7jMBMGA1UdJQQMMAoGCCsGAQUFBwMCMAsGA1UdDwQEAwIHgDANBgkq
hkiG9w0BAQsFAAOCAQEAELjlZNr7c/leiCg/F6QsJL8q4zNZb63GSx9tXdK1ABAu
jorHfKEBAXMerOcC1ehOtPXKd8KO0zVbLftBQ1bQq7djrJb24fKtj7xGAool/Xyw
evMLj88aVT3nwoy4HLVGe25PCD8FS/edI7P1d/JLo/ki6b8nSY+y93mc5CO/f018
8ykTCJ7mztPiJTwK5xELYydcfls09zzSW0Qkaiow4ce53VwE7qbVdmv4Z7y6YPuM
qr1A7AUyxnOHRIOZPh6cXat989G1nSruO0S7zUx0muMuuJxquXomrG/DlKfqnPju
gJAqJvikrAAe1rx2f61nXEzLu5ivTGXNzikrCK0sjw==
-----END CERTIFICATE-----
